; Function Attrs: mustprogress uwtable
define void @_ZN4YAML6Parser11PrintTokensERSo(ptr nocapture noundef nonnull readonly align 8 dereferenceable(16) %this, ptr noundef nonnull align 8 dereferenceable(8) %out) local_unnamed_addr #5 align 2 {
entry:
  %0 = load ptr, ptr %this, align 8
  %cmp.i.not = icmp eq ptr %0, null
  br i1 %cmp.i.not, label %while.end, label %while.cond.preheader

while.cond.preheader:                             ; preds = %entry
  %call41 = tail call noundef zeroext i1 @_ZN4YAML7Scanner5emptyEv(ptr noundef nonnull align 8 dereferenceable(480) %0)
  br i1 %call41, label %while.end, label %while.body

while.body:                                       ; preds = %while.cond.preheader, %while.body
  %1 = load ptr, ptr %this, align 8
  %call7 = tail call noundef nonnull align 8 dereferenceable(84) ptr @_ZN4YAML7Scanner4peekEv(ptr noundef nonnull align 8 dereferenceable(480) %1)
  %call8 = tail call noundef nonnull align 8 dereferenceable(8) ptr @_ZN4YAMLlsERSoRKNS_5TokenE(ptr noundef nonnull align 8 dereferenceable(8) %out, ptr noundef nonnull align 8 dereferenceable(84) %call7)
  %call9 = tail call noundef nonnull align 8 dereferenceable(8) ptr @_ZStlsISt11char_traitsIcEERSt13basic_ostreamIcT_ES5_PKc(ptr noundef nonnull align 8 dereferenceable(8) %call8, ptr noundef nonnull @.str.28)
  %2 = load ptr, ptr %this, align 8
  tail call void @_ZN4YAML7Scanner3popEv(ptr noundef nonnull align 8 dereferenceable(480) %2)
  %3 = load ptr, ptr %this, align 8
  %call4 = tail call noundef zeroext i1 @_ZN4YAML7Scanner5emptyEv(ptr noundef nonnull align 8 dereferenceable(480) %3)
  br i1 %call4, label %while.end, label %while.body, !llvm.loop !7

while.end:                                        ; preds = %while.body, %while.cond.preheader, %entry
  ret void
}